Microsoft (R) Macro Assembler Version 5.10                  12/1/21 17:45:26
                                                             Page     1-1


				ASSUME CS:CODE, DS:DATA, SS:STACK
				.186
 0000				STACK SEGMENT STACK
 0000  0400[				DW 1024 DUP(?)
	   ????			
			 ]	
				
 0800				STACK ENDS
				
 0000				DATA SEGMENT
 0000  0000				KEEP_CS DW 0
 0002  0000			    KEEP_IP DW 0
 0004				DATA ENDS
				
 0000				CODE SEGMENT
 0000					print_cmos proc near
 0000  E6 70			        out        70h,al               ; –ø–æ—
				Å–ª–∞—Ç—å AL –≤ –∏–Ω–¥–µ–∫—Å–Ω—ã–π –ø–æ—Ä—Ç CMO
				S
 0002  E4 71			        in         al,71h               ; –ø—Ä–
				æ—á–∏—Ç–∞—Ç—å –¥–∞–Ω–Ω—ã–µ
 0004  50			        push       ax
 0005  C0 E8 04			        shr        al, 4                 ; –≤—ã
				–¥–µ–ª–∏—Ç—å —Å—Ç–∞—Ä—à–∏–µ —á–µ—Ç—ã—Ä–µ –±–∏—Ç
				–∞
 0008  04 30			        add        al,'0'               ; –¥–æ–
				±–∞–≤–∏—Ç—å ASCII-–∫–æ–¥ —Ü–∏—Ñ—Ä—ã 0
 000A  CD 29			        int        29h                  ; –≤—ã–
				≤–µ—Å—Ç–∏ –Ω–∞ —ç–∫—Ä–∞–Ω
 000C  58			        pop        ax
 000D  24 0F			        and        al,0Fh               ; –≤—ã–
				¥–µ–ª–∏—Ç—å –º–ª–∞–¥—à–∏–µ —á–µ—Ç—ã—Ä–µ –±–∏—Ç–
				∞
 000F  04 30			        add        al,30h               ; –¥–æ–
				±–∞–≤–∏—Ç—å ASCII-–∫–æ–¥ —Ü–∏—Ñ—Ä—ã 0
 0011  CD 29			        int        29h                  ; –≤—ã–
				≤–µ—Å—Ç–∏ –Ω–∞ —ç–∫—Ä–∞–Ω
 0013  C3			        ret
 0014					print_cmos endp
				
 0014					inter PROC FAR
 0014  50			        push    ax
 0015  53					push    bx
 0016  51					push    cx
 0017  52					push    dx
 0018  1E					push    ds
						
 0019  B0 0B					mov        al,0Bh              
				 ; CMOS OBh - —É–ø—Ä–∞–≤–ª—è—é—â–∏–π —Ä–µ–≥–∏—Å
				—Ç—Ä –í
 001B  E6 70			        out        70h,al               ; –ø–æ—
				Ä—Ç 70h - –∏–Ω–¥–µ–∫—Å CMOS
 001D  E4 71			        in         al,71h               ; –ø–æ—
				Ä—Ç 71h - –¥–∞–Ω–Ω—ã–µ CMOS
Microsoft (R) Macro Assembler Version 5.10                  12/1/21 17:45:26
                                                             Page     1-2


 001F  24 FB			        and        al,11111011b         ; –æ–±–
				Ω—É–ª–∏—Ç—å –±–∏—Ç 2 (—Ñ–æ—Ä–º–∞ —á–∏—Å–µ–ª - B
				CD)
 0021  E6 71			        out        71h,al               ; –∏ –∑
				–∞–ø–∏—Å–∞—Ç—å –æ–±—Ä–∞—Ç–Ω–æ
 0023  B0 04			        mov        al,4h                 ; CMOS
				 04h - —á–∞—Å
 0025  E8 0000 R		        call       print_cmos
 0028  B0 3A			        mov        al,':'               ; –¥–≤–
				æ–µ—Ç–æ—á–∏–µ
 002A  CD 29			        int        29h
 002C  B0 02			        mov        al,2h                 ; CMOS
				 02h - –º–∏–Ω—É—Ç–∞
 002E  E8 0000 R		        call       print_cmos
 0031  B0 3A			        mov        al,':'               ; –¥–≤–
				æ–µ—Ç–æ—á–∏–µ
 0033  CD 29			        int        29h
 0035  B0 00			        mov        al,0h                ; CMOS 
				00h - —Å–µ–∫—É–Ω–¥–∞
 0037  E8 0000 R		        call       print_cmos
 003A  B0 0A					mov        al, 10              
				 
 003C  CD 29			        int        29h
 003E  B0 0D					mov        al, 13              
				 
 0040  CD 29			        int        29h
						
 0042  58					pop ax
 0043  5B			        pop bx
 0044  59			        pop cx
 0045  5A			        pop dx
 0046  1F			        pop ds
 0047  B0 20			        mov al, 20h
 0049  E6 20			        out 20h, al
 004B  CF			        iret
 004C					inter  ENDP
					
 004C					main PROC FAR	
					
 004C  B4 35					mov ah, 35h
 004E  B0 23					mov al, 23h
 0050  CD 21					int 21h
 0052  89 1E 0002 R				mov KEEP_IP, bx
 0056  8C 06 0000 R				mov KEEP_CS, es
					
 005A  1E					push ds
 005B  BA 0014 R				mov dx, offset inter 
 005E  B8 ---- R				mov ax, seg inter
 0061  8E D8					mov ds, ax
 0063  B4 25					mov ah, 25h
 0065  B0 23					mov al, 23h
 0067  CD 21					int 21h
 0069  1F					pop ds
					
Microsoft (R) Macro Assembler Version 5.10                  12/1/21 17:45:26
                                                             Page     1-3


 006A						begin:
 006A  B4 00						mov ah,0
 006C  CD 16						int 16h
 006E  3C 71						cmp al, 'q'
 0070  74 08						je quit
 0072  3C 03						cmp al,3
 0074  75 F4						jnz begin
							
 0076  CD 23						int 23h	
 0078  EB F0						jmp begin
							
 007A						quit:
						
 007A  FA					cli
 007B  1E					push ds
 007C  8B 16 0002 R				mov dx, KEEP_IP
 0080  A1 0000 R				mov ax, KEEP_CS
 0083  8E D8					mov ds, ax
 0085  B4 25					mov ah, 25h
 0087  B0 23					mov al, 23h
 0089  CD 21					int 21h
 008B  1F					pop	ds
 008C  FB					sti
						
 008D  B4 4C					mov ah, 4ch
 008F  CD 21					int 21h
 0091					main ENDP
 0091				CODE ENDS
				END main 
Microsoft (R) Macro Assembler Version 5.10                  12/1/21 17:45:26
                                                             Symbols-1


Segments and Groups:

                N a m e         	Length	 Align	Combine Class

CODE . . . . . . . . . . . . . .  	0091	PARA	NONE	
DATA . . . . . . . . . . . . . .  	0004	PARA	NONE	
STACK  . . . . . . . . . . . . .  	0800	PARA	STACK	

Symbols:            

                N a m e         	Type	 Value	 Attr

BEGIN  . . . . . . . . . . . . .  	L NEAR	006A	CODE

INTER  . . . . . . . . . . . . .  	F PROC	0014	CODE	Length = 0038

KEEP_CS  . . . . . . . . . . . .  	L WORD	0000	DATA
KEEP_IP  . . . . . . . . . . . .  	L WORD	0002	DATA

MAIN . . . . . . . . . . . . . .  	F PROC	004C	CODE	Length = 0045

PRINT_CMOS . . . . . . . . . . .  	N PROC	0000	CODE	Length = 0014

QUIT . . . . . . . . . . . . . .  	L NEAR	007A	CODE

@CPU . . . . . . . . . . . . . .  	TEXT  259		
@FILENAME  . . . . . . . . . . .  	TEXT  lb5		
@VERSION . . . . . . . . . . . .  	TEXT  510		


    109 Source  Lines
    109 Total   Lines
     15 Symbols

  48034 + 459226 Bytes symbol space free

      0 Warning Errors
      0 Severe  Errors
