Microsoft (R) Macro Assembler Version 5.10                  12/2/21 03:59:08
                                                             Page     1-1


				; –°—Ç–µ–∫ –ø—Ä–æ–≥—Ä–∞–º–º—ã
 0000				AStack SEGMENT STACK
 0000  0200[			    DW 512 DUP(?) ; –≤—ã–¥–µ–ª–∏–º 1 –ö–±–∞–π—Ç
				 –ø–∞–º—è—Ç–∏
	   ????			
			 ]	
				
 0400				AStack ENDS
				; –î–∞–Ω–Ω—ã–µ –ø—Ä–æ–≥—Ä–∞–º–º—ã
 0000				DATA SEGMENT
 0000  0000			  KEEP_CS DW 0 ; –¥–ª—è —Ö—Ä–∞–Ω–µ–Ω–∏—è —Å–µ–≥
				–º–µ–Ω—Ç–∞
 0002  0000			  KEEP_IP DW 0 ; –∏ —Å–º–µ—â–µ–Ω–∏—è –≤–µ–∫—Ç–æ
				—Ä–∞ –ø—Ä–µ—Ä—ã–≤–∞–Ω–∏—è
				  ;save_ss dw 0000h
				  ;save_sp dw 0000h
				  ;ind_stack dw 512 DUP(?)
 0004				DATA ENDS
				; –ö–æ–¥ –ø—Ä–æ–≥—Ä–∞–º–º—ã
 0000				CODE SEGMENT
				ASSUME CS:CODE, DS:DATA, SS:AStack
 0000				SUBR_INT PROC FAR ; –∑–≤—É–∫–æ–≤–æ–µ –ø—Ä–µ—Ä—ã
				–≤–∞–Ω–∏–µ –æ—Ç —Ç–∞–π–º–µ—Ä–∞
				  ;jmp h_start
				  ;h_start:
				    ;mov save_ss, SS
				    ;mov save_sp, sp
				    ;mov sp, seg ind_stack
				    ;mov ss, sp
				    ;mov sp, OFFSET h_start
 0000  51			  PUSH CX ; —Å–æ—Ö—Ä–∞–Ω–µ–Ω–∏–µ –∏–∑–º–µ–Ω—è–µ
				–º—ã—Ö —Ä–µ–≥–∏—Å—Ç—Ä–æ–≤
 0001  50			  PUSH AX
				  
 0002  B0 B6			  MOV AL, 10110110b
 0004  E6 43			  out 43h, al
 0006  8B C3			  MOV AX, BX
 0008  E6 42			  OUT 42H, AL ; –≤–∫–ª—é—á–µ–Ω–∏–µ —Ç–∞–π–º–µ—Ä
				–∞, –∫–æ—Ç–æ—Ä—ã–π –±—É–¥–µ—Ç –≤—ã–¥–∞–≤–∞—Ç—å 
				–∏–º–ø—É–ª—å—Å—ã –Ω–∞ –¥–∏–Ω–∞–º–∏–∫ —Å –∑–∞–¥–
				∞–Ω–Ω–æ–π —á–∞—Å—Ç–æ—Ç–æ–π 
				  
 000A  8A E0			  MOV AH, AL
 000C  E6 42			  OUT 42H, AL 
 000E  E4 61			   IN AL,61H ; –ø–æ–ª—É—á–∞–µ–º —Å–æ—Å—Ç–æ—è–Ω–
				∏–µ –¥–∏–Ω–∞–º–∏–∫–∞
 0010  0C 03			  OR AL, 00000011b 
 0012  E6 61			  OUT 61H, AL ; –≤–∫–ª—é—á–∏—Ç—å –¥–∏–Ω–∞–º–∏–∫
				        
 0014  2B C9			  sub cx, cx ;
 0016  E2 FE			  TIME: LOOP TIME ; —É–º–µ–Ω—å—à–∞–µ—Ç –∑–Ω–∞—á
				–µ–Ω–∏–µ –≤ —Ä–µ–≥–∏—Å—Ç—Ä–µ –°–•, –µ—Å–ª–∏ –°–
				• != 0, —Ç–æ –≤—ã–ø–æ–ª–Ω—è–µ—Ç—Å—è –ø–µ—Ä–µ—Ö–
				æ–¥ –∫ –º–µ—Ç–∫–µ
Microsoft (R) Macro Assembler Version 5.10                  12/2/21 03:59:08
                                                             Page     1-2


				  ; —Ñ–ª–∞–≥–∏ –Ω–µ –º–µ–Ω—è—é—Ç—Å—è
				  
 0018  8A C4			  MOV AL, AH
 001A  E6 61			  OUT 61H, AL ; –≤—ã–∫–ª—é—á–∏—Ç—å –¥–∏–Ω–∞–º–∏
				–∫
				  ;mov save_ss, 0000h
				  ;mov save_sp, 0000h
 001C  58			  POP AX ; –≤–æ—Å—Å—Ç–∞–Ω–æ–≤–ª–µ–Ω–∏–µ —Ä–µ–≥–
				∏—Å—Ç—Ä–æ–≤
 001D  59			  POP CX
 001E  B0 20			  MOV AL, 20H
 0020  E6 20			  OUT 20H,AL ; –≤—ã–≤–æ–¥ –Ω–∞ –ø–æ—Ä—Ç
 0022  CF			  IRET
 0023				  SUBR_INT ENDP
				; –ì–æ–ª–æ–≤–Ω–∞—è –ø—Ä–æ—Ü–µ–¥—É—Ä–∞
 0023				Main PROC FAR
 0023  B4 35			  MOV AH, 35H ; —Ñ—É–Ω–∫—Ü–∏—è –ø–æ–ª—É—á–µ–Ω–∏
				—è –≤–µ–∫—Ç–æ—Ä–∞
 0025  B0 08			  MOV AL, 08h ; –Ω–æ–º–µ—Ä –≤–µ–∫—Ç–æ—Ä–∞ –ø—Ä–
				µ—Ä—ã–≤–∞–Ω–∏—è –≤ —Å–æ–æ—Ç–≤–µ—Ç—Å—Ç–≤–∏–∏ —Å 
				–∑–∞–¥–∞–Ω–∏–µ–º
 0027  CD 21			  INT 21H ; —Ä–µ–∞–ª–∏–∑—É–µ—Ç—Å—è –ø—Ä–æ—Ü–µ–¥
				—É—Ä–∞ –ø—Ä–µ—Ä—ã–≤–∞–Ω–∏—è
 0029  89 1E 0002 R		  MOV KEEP_IP, BX ; –∑–∞–ø–æ–º–∏–Ω–∞–Ω–∏–µ —Å–º
				–µ—â–µ–Ω–∏—è
 002D  8C 06 0000 R		  MOV KEEP_CS, ES ; –∏ —Å–µ–≥–º–µ–Ω—Ç–∞ –≤–µ–∫—
				Ç–æ—Ä–∞ –ø—Ä–µ—Ä—ã–≤–∞–Ω–∏—è
 0031  BB 0BB8			  MOV BX, 3000 ; –≤—ã—Å–æ—Ç–∞ –∑–≤—É–∫–∞
 0034  1E			  PUSH DS
 0035  BA 0000 R		  MOV DX, OFFSET SUBR_INT ; —Å–º–µ—â–µ–Ω–∏–µ –¥
				–ª—è –ø—Ä–æ—Ü–µ–¥—É—Ä—ã –≤ DX
 0038  B8 ---- R		  MOV AX, SEG SUBR_INT ; —Å–µ–≥–º–µ–Ω—Ç –ø—Ä–æ—
				Ü–µ–¥—É—Ä—ã
 003B  8E D8			  MOV DS, AX ; –ø–æ–º–µ—â–∞–µ–º –≤ DS
 003D  B4 25			  MOV AH, 25H ; —Ñ—É–Ω–∫—Ü–∏—è —É—Å—Ç–∞–Ω–æ–≤–∫
				–∏ –≤–µ–∫—Ç–æ—Ä–∞?
 003F  B0 08			  MOV AL, 08h ; –Ω–æ–º–µ—Ä –≤–µ–∫—Ç–æ—Ä–∞
 0041  CD 21			  INT 21H ; –º–µ–Ω—è–µ–º –ø—Ä–µ—Ä—ã–≤–∞–Ω–∏–µ
 0043  1F			  POP DS
				; –ö–æ–º–∞–Ω–¥—ã –¥–ª—è –ø—Ä–æ–≤–µ—Ä–∫–∏ —Ä–∞–±
				–æ—Ç—ã –ø—Ä–æ–≥—Ä–∞–º–º—ã
 0044				 inputKeyBoard:
 0044  B4 00			  mov ah, 0h
 0046  CD 16			  int 16h
 0048  3C 77			  cmp al, 'w'
 004A  74 07			  je UpVol
 004C  3C 73			  cmp al, 's'
 004E  74 0F			  je DownVol
 0050  EB 19 90			  jmp endInput
 0053				UpVol:
 0053  81 FB 03E8		  cmp bx, 1000
 0057  7D EB			  jge inputKeyBoard
 0059  81 C3 01F4		  add bx, 500
 005D  EB E5			  jmp inputKeyBoard
Microsoft (R) Macro Assembler Version 5.10                  12/2/21 03:59:08
                                                             Page     1-3


 005F				DownVol:
 005F  81 FB 01F4		  cmp bx, 500
 0063  7E DF			  jle inputKeyBoard
 0065  81 EB 01F4		  sub bx, 500
 0069  EB D9			  jmp inputKeyBoard
				
 006B				endInput:
 006B  FA			  CLI ; –°–±—Ä–æ—Å —Ñ–ª–∞–≥–∞ –ø—Ä–µ—Ä—ã–≤–∞–Ω–
				∏–π IF - 0
 006C  1E			  PUSH DS
 006D  8B 16 0002 R		  MOV DX, KEEP_IP
 0071  A1 0000 R		  MOV AX, KEEP_CS
 0074  8E D8			  MOV DS, AX
 0076  B4 25			  MOV AH, 25H
 0078  B0 08			  MOV AL, 08h ;
 007A  CD 21			  INT 21H ; –≤–æ—Å—Å—Ç–∞–Ω–∞–≤–ª–∏–≤–∞–µ–º —Å—Ç
				–∞—Ä—ã–π –≤–µ–∫—Ç–æ—Ä –ø—Ä–µ—Ä—ã–≤–∞–Ω–∏—è
 007C  1F			  POP DS
 007D  FB			  STI
 007E  B4 4C			  MOV AH, 4Ch
 0080  CD 21			  INT 21h
 0082				Main ENDP
 0082				CODE ENDS
				END Main
Microsoft (R) Macro Assembler Version 5.10                  12/2/21 03:59:08
                                                             Symbols-1


Segments and Groups:

                N a m e         	Length	 Align	Combine Class

ASTACK . . . . . . . . . . . . .  	0400	PARA	STACK	
CODE . . . . . . . . . . . . . .  	0082	PARA	NONE	
DATA . . . . . . . . . . . . . .  	0004	PARA	NONE	

Symbols:            

                N a m e         	Type	 Value	 Attr

DOWNVOL  . . . . . . . . . . . .  	L NEAR	005F	CODE

ENDINPUT . . . . . . . . . . . .  	L NEAR	006B	CODE

INPUTKEYBOARD  . . . . . . . . .  	L NEAR	0044	CODE

KEEP_CS  . . . . . . . . . . . .  	L WORD	0000	DATA
KEEP_IP  . . . . . . . . . . . .  	L WORD	0002	DATA

MAIN . . . . . . . . . . . . . .  	F PROC	0023	CODE	Length = 005F

SUBR_INT . . . . . . . . . . . .  	F PROC	0000	CODE	Length = 0023

TIME . . . . . . . . . . . . . .  	L NEAR	0016	CODE

UPVOL  . . . . . . . . . . . . .  	L NEAR	0053	CODE

@CPU . . . . . . . . . . . . . .  	TEXT  0101h		
@FILENAME  . . . . . . . . . . .  	TEXT  lb5		
@VERSION . . . . . . . . . . . .  	TEXT  510		


    103 Source  Lines
    103 Total   Lines
     17 Symbols

  48034 + 457176 Bytes symbol space free

      0 Warning Errors
      0 Severe  Errors
